	.syntax unified
	.cpu cortex-m4
	.eabi_attribute 27, 3
	.eabi_attribute 28, 1
	.fpu fpv4-sp-d16
	.eabi_attribute 20, 1
	.eabi_attribute 21, 1
	.eabi_attribute 23, 3
	.eabi_attribute 24, 1
	.eabi_attribute 25, 1
	.eabi_attribute 26, 1
	.eabi_attribute 30, 2
	.eabi_attribute 34, 1
	.eabi_attribute 18, 4
	.thumb
	.file	"main.c"
	.text
.Ltext0:
	.cfi_sections	.debug_frame
	.section	.text.startup,"ax",%progbits
	.align	2
	.global	main
	.thumb
	.thumb_func
	.type	main, %function
main:
.LFB110:
	.file 1 "main.c"
	.loc 1 7 0
	.cfi_startproc
	@ args = 0, pretend = 0, frame = 8
	@ frame_needed = 0, uses_anonymous_args = 0
.LVL0:
	push	{r4, lr}
	.cfi_def_cfa_offset 8
	.cfi_offset 4, -8
	.cfi_offset 14, -4
	.loc 1 9 0
	mov	r0, #364
	.loc 1 7 0
	sub	sp, sp, #8
	.cfi_def_cfa_offset 16
	.loc 1 9 0
	bl	initUSART2
.LVL1:
	.loc 1 8 0
	movs	r4, #0
.LVL2:
.L5:
	.loc 1 13 0 discriminator 1
	ldr	r0, .L10
	mov	r1, r4
	bl	printUSART2
.LVL3:
	.loc 1 14 0 discriminator 1
	ldr	r0, .L10+4
	mov	r1, r4
	bl	printUSART2
.LVL4:
	.loc 1 15 0 discriminator 1
	ldr	r0, .L10+8
	mov	r1, r4
	bl	printUSART2
.LVL5:
	.loc 1 16 0 discriminator 1
	mov	r3, r4
	ldr	r0, .L10+12
	mov	r1, r4
	mov	r2, r4
	bl	printUSART2
.LVL6:
.LBB4:
.LBB5:
	.loc 1 25 0 discriminator 1
	ldr	r3, .L10+16
	str	r3, [sp, #4]
	.loc 1 27 0 discriminator 1
	ldr	r3, [sp, #4]
	cbz	r3, .L3
.L6:
	.loc 1 29 0
	ldr	r3, [sp, #4]
	subs	r3, r3, #1
	str	r3, [sp, #4]
	.loc 1 27 0
	ldr	r3, [sp, #4]
	cmp	r3, #0
	bne	.L6
.L3:
.LBE5:
.LBE4:
	.loc 1 19 0 discriminator 1
	adds	r4, r4, #1
.LVL7:
	.loc 1 20 0 discriminator 1
	b	.L5
.L11:
	.align	2
.L10:
	.word	.LC0
	.word	.LC1
	.word	.LC2
	.word	.LC3
	.word	10500000
	.cfi_endproc
.LFE110:
	.size	main, .-main
	.text
	.align	2
	.global	delay_soft_ms
	.thumb
	.thumb_func
	.type	delay_soft_ms, %function
delay_soft_ms:
.LFB111:
	.loc 1 24 0
	.cfi_startproc
	@ args = 0, pretend = 0, frame = 8
	@ frame_needed = 0, uses_anonymous_args = 0
	@ link register save eliminated.
.LVL8:
	sub	sp, sp, #8
	.cfi_def_cfa_offset 8
	.loc 1 25 0
	movw	r3, #10500
	mul	r0, r3, r0
.LVL9:
	str	r0, [sp, #4]
	.loc 1 27 0
	ldr	r3, [sp, #4]
	cbz	r3, .L12
.L15:
	.loc 1 29 0
	ldr	r3, [sp, #4]
	subs	r3, r3, #1
	str	r3, [sp, #4]
	.loc 1 27 0
	ldr	r3, [sp, #4]
	cmp	r3, #0
	bne	.L15
.L12:
	.loc 1 33 0
	add	sp, sp, #8
	.cfi_def_cfa_offset 0
	@ sp needed
	bx	lr
	.cfi_endproc
.LFE111:
	.size	delay_soft_ms, .-delay_soft_ms
	.section	.rodata.str1.4,"aMS",%progbits,1
	.align	2
.LC0:
	.ascii	"-> SYS: dec [%d]\012\000"
	.space	2
.LC1:
	.ascii	"-> SYS: hex [0x%x]\012\000"
.LC2:
	.ascii	"-> SYS: bin [%b]\012\000"
	.space	2
.LC3:
	.ascii	"[uint32_t] hex: \033[34m%x\033[39m \011bin: \033[33"
	.ascii	"m%b\033[39m \011dec: \033[35m%d\033[39m\012\012\000"
	.text
.Letext0:
	.file 2 "/home/adnan/STM32F407/gcc-arm-none-eabi/arm-none-eabi/include/machine/_default_types.h"
	.file 3 "/home/adnan/STM32F407/gcc-arm-none-eabi/arm-none-eabi/include/stdint.h"
	.file 4 "usart.h"
	.file 5 "../../../../STM32F407/Libraries/CMSIS/Include/core_cm4.h"