	.syntax unified
	.cpu cortex-m4
	.eabi_attribute 27, 3
	.eabi_attribute 28, 1
	.fpu fpv4-sp-d16
	.eabi_attribute 20, 1
	.eabi_attribute 21, 1
	.eabi_attribute 23, 3
	.eabi_attribute 24, 1
	.eabi_attribute 25, 1
	.eabi_attribute 26, 1
	.eabi_attribute 30, 2
	.eabi_attribute 34, 1
	.eabi_attribute 18, 4
	.thumb
	.file	"main.c"
	.text
.Ltext0:
	.cfi_sections	.debug_frame
	.align	2
	.global	initLED
	.thumb
	.thumb_func
	.type	initLED, %function
initLED:
.LFB111:
	.file 1 "main.c"
	.loc 1 54 0
	.cfi_startproc
	@ args = 0, pretend = 0, frame = 0
	@ frame_needed = 0, uses_anonymous_args = 0
	@ link register save eliminated.
	.loc 1 58 0
	ldr	r1, .L2
	.loc 1 59 0
	ldr	r3, .L2+4
	.loc 1 58 0
	ldr	r2, [r1, #48]
	orr	r2, r2, #8
	str	r2, [r1, #48]
	.loc 1 59 0
	ldr	r2, [r3]
	orr	r2, r2, #1426063360
	str	r2, [r3]
	.loc 1 60 0
	ldr	r2, [r3, #4]
	str	r2, [r3, #4]
	.loc 1 61 0
	ldr	r2, [r3, #8]
	orr	r2, r2, #-16777216
	str	r2, [r3, #8]
	.loc 1 63 0
	ldr	r2, [r3, #20]
	ubfx	r2, r2, #0, #12
	str	r2, [r3, #20]
	bx	lr
.L3:
	.align	2
.L2:
	.word	1073887232
	.word	1073875968
	.cfi_endproc
.LFE111:
	.size	initLED, .-initLED
	.align	2
	.global	blinkLED
	.thumb
	.thumb_func
	.type	blinkLED, %function
blinkLED:
.LFB112:
	.loc 1 67 0
	.cfi_startproc
	@ args = 0, pretend = 0, frame = 0
	@ frame_needed = 0, uses_anonymous_args = 0
	@ link register save eliminated.
	.loc 1 68 0
	ldr	r3, .L6
	.loc 1 69 0
	ldr	r2, .L6+4
	.loc 1 68 0
	ldr	r1, [r3, #20]
	.loc 1 69 0
	ldr	r0, .L6+8
	.loc 1 68 0
	ubfx	r1, r1, #0, #12
	str	r1, [r3, #20]
	.loc 1 69 0
	ldrb	r1, [r2]	@ zero_extendqisi2
	uxtb	r1, r1
	ldrh	r1, [r0, r1, lsl #1]
	ldr	r0, [r3, #20]
	uxth	r1, r1
	orrs	r1, r1, r0
	str	r1, [r3, #20]
	.loc 1 70 0
	ldrb	r3, [r2]	@ zero_extendqisi2
	adds	r3, r3, #1
	uxtb	r3, r3
	strb	r3, [r2]
	.loc 1 71 0
	ldrb	r3, [r2]	@ zero_extendqisi2
	cmp	r3, #8
	.loc 1 72 0
	itt	eq
	moveq	r3, #0
	strbeq	r3, [r2]
	bx	lr
.L7:
	.align	2
.L6:
	.word	1073875968
	.word	g_led_k
	.word	.LANCHOR0
	.cfi_endproc
.LFE112:
	.size	blinkLED, .-blinkLED
	.section	.text.startup,"ax",%progbits
	.align	2
	.global	main
	.thumb
	.thumb_func
	.type	main, %function
main:
.LFB110:
	.loc 1 15 0
	.cfi_startproc
	@ args = 0, pretend = 0, frame = 4000
	@ frame_needed = 0, uses_anonymous_args = 0
.LVL0:
	push	{r4, r5, r6, r7, r8, lr}
	.cfi_def_cfa_offset 24
	.cfi_offset 4, -24
	.cfi_offset 5, -20
	.cfi_offset 6, -16
	.cfi_offset 7, -12
	.cfi_offset 8, -8
	.cfi_offset 14, -4
	sub	sp, sp, #4000
	.cfi_def_cfa_offset 4024
	.loc 1 22 0
	bl	initLED
.LVL1:
.LBB2:
	.loc 1 29 0
	ldr	r8, .L21
.LBE2:
	.loc 1 23 0
	movs	r0, #45
	bl	initUSART2
.LVL2:
	.loc 1 24 0
	mov	r0, sp
	add	r1, sp, #2000
	mov	r2, #1000
	bl	initDmaADC1
.LVL3:
.LBB3:
	.loc 1 28 0
	bl	getcharUSART2
.LVL4:
	.loc 1 29 0
	ldr	r3, [r8]
	lsls	r3, r3, #12
	add	r7, sp, #198
	addw	r6, sp, #2198
	bpl	.L9
.LVL5:
.L19:
	sub	r4, sp, #2
.L10:
	.loc 1 34 0 discriminator 3
	ldrh	r5, [r4, #2]!
.LVL6:
	.loc 1 35 0 discriminator 3
	lsrs	r0, r5, #8
	bl	putcharUSART2
.LVL7:
	.loc 1 36 0 discriminator 3
	uxtb	r0, r5
	bl	putcharUSART2
.LVL8:
	.loc 1 32 0 discriminator 3
	cmp	r4, r7
	bne	.L10
	.loc 1 49 0
	bl	blinkLED
.LVL9:
.L20:
	.loc 1 28 0
	bl	getcharUSART2
.LVL10:
	.loc 1 29 0
	ldr	r3, [r8]
	lsls	r3, r3, #12
	bmi	.L19
.LVL11:
.L9:
	addw	r4, sp, #1998
.L12:
	.loc 1 44 0 discriminator 3
	ldrh	r5, [r4, #2]!
.LVL12:
	.loc 1 45 0 discriminator 3
	lsrs	r0, r5, #8
	bl	putcharUSART2
.LVL13:
	.loc 1 46 0 discriminator 3
	uxtb	r0, r5
	bl	putcharUSART2
.LVL14:
	.loc 1 42 0 discriminator 3
	cmp	r4, r6
	bne	.L12
	.loc 1 49 0
	bl	blinkLED
.LVL15:
	b	.L20
.L22:
	.align	2
.L21:
	.word	1073898512
.LBE3:
	.cfi_endproc
.LFE110:
	.size	main, .-main
	.comm	g_led_k,1,1
	.global	g_led_state
	.data
	.align	2
	.set	.LANCHOR0,. + 0
	.type	g_led_state, %object
	.size	g_led_state, 16
g_led_state:
	.short	-4096
	.short	-8192
	.short	-16384
	.short	-32768
	.short	0
	.short	4096
	.short	12288
	.short	28672
	.text
.Letext0:
	.file 2 "/home/asmir/msut/STM32F407/gcc-arm-none-eabi/arm-none-eabi/include/machine/_default_types.h"
	.file 3 "/home/asmir/msut/STM32F407/gcc-arm-none-eabi/arm-none-eabi/include/stdint.h"
	.file 4 "../../../../STM32F407/Libraries/CMSIS/ST/STM32F4xx/Include/stm32f4xx.h"
	.file 5 "../../../../STM32F407/Libraries/CMSIS/Include/core_cm4.h"
	.file 6 "usart.h"
	.file 7 "adc.h"